target datalayout = "e-m:e-p270:32:32-p271:32:32-p272:64:64-i64:64-i128:128-f80:128-n8:16:32:64-S128"
target triple = "x86_64-pc-linux-gnu"

%struct.strbuf = type { i64, i64, ptr }
%struct.commit_graft = type { %struct.object_id, i32, [0 x %struct.object_id] }
%struct.object_id = type { [32 x i8], i32 }
%struct.commit = type { %struct.object, i64, ptr, ptr, i32 }
%struct.object = type { i32, %struct.object_id }
%struct.write_shallow_data = type { ptr, i32, i32, i32 }

@the_repository = external global ptr, align 8
@.str.14 = private unnamed_addr constant [31 x i8] c"Removing %s from .git/shallow\0A\00", align 1
@.str.15 = private unnamed_addr constant [11 x i8] c"shallow %s\00", align 1

; Function Attrs: inlinehint nounwind uwtable
define internal i64 @strbuf_avail(ptr noundef %0) #3 {
  %2 = alloca ptr, align 8
  store ptr %0, ptr %2, align 8, !tbaa !105
  %3 = load ptr, ptr %2, align 8, !tbaa !105
  %4 = getelementptr inbounds nuw %struct.strbuf, ptr %3, i32 0, i32 0
  %5 = load i64, ptr %4, align 8, !tbaa !192
  %6 = icmp ne i64 %5, 0
  br i1 %6, label %7, label %16

7:                                                ; preds = %1
  %8 = load ptr, ptr %2, align 8, !tbaa !105
  %9 = getelementptr inbounds nuw %struct.strbuf, ptr %8, i32 0, i32 0
  %10 = load i64, ptr %9, align 8, !tbaa !192
  %11 = load ptr, ptr %2, align 8, !tbaa !105
  %12 = getelementptr inbounds nuw %struct.strbuf, ptr %11, i32 0, i32 1
  %13 = load i64, ptr %12, align 8, !tbaa !126
  %14 = sub i64 %10, %13
  %15 = sub i64 %14, 1
  br label %17

16:                                               ; preds = %1
  br label %17

17:                                               ; preds = %16, %7
  %18 = phi i64 [ %15, %7 ], [ 0, %16 ]
  ret i64 %18
}

; Function Attrs: inlinehint nounwind uwtable
define internal void @strbuf_addch(ptr noundef %0, i32 noundef %1) #3 {
  %3 = alloca ptr, align 8
  %4 = alloca i32, align 4
  store ptr %0, ptr %3, align 8, !tbaa !105
  store i32 %1, ptr %4, align 4, !tbaa !11
  %5 = load ptr, ptr %3, align 8, !tbaa !105
  %6 = call i64 @strbuf_avail(ptr noundef %5)
  %7 = icmp ne i64 %6, 0
  br i1 %7, label %10, label %8

8:                                                ; preds = %2
  %9 = load ptr, ptr %3, align 8, !tbaa !105
  call void @strbuf_grow(ptr noundef %9, i64 noundef 1)
  br label %10

10:                                               ; preds = %8, %2
  %11 = load i32, ptr %4, align 4, !tbaa !11
  %12 = trunc i32 %11 to i8
  %13 = load ptr, ptr %3, align 8, !tbaa !105
  %14 = getelementptr inbounds nuw %struct.strbuf, ptr %13, i32 0, i32 2
  %15 = load ptr, ptr %14, align 8, !tbaa !125
  %16 = load ptr, ptr %3, align 8, !tbaa !105
  %17 = getelementptr inbounds nuw %struct.strbuf, ptr %16, i32 0, i32 1
  %18 = load i64, ptr %17, align 8, !tbaa !126
  %19 = add i64 %18, 1
  store i64 %19, ptr %17, align 8, !tbaa !126
  %20 = getelementptr inbounds nuw i8, ptr %15, i64 %18
  store i8 %12, ptr %20, align 1, !tbaa !57
  %21 = load ptr, ptr %3, align 8, !tbaa !105
  %22 = getelementptr inbounds nuw %struct.strbuf, ptr %21, i32 0, i32 2
  %23 = load ptr, ptr %22, align 8, !tbaa !125
  %24 = load ptr, ptr %3, align 8, !tbaa !105
  %25 = getelementptr inbounds nuw %struct.strbuf, ptr %24, i32 0, i32 1
  %26 = load i64, ptr %25, align 8, !tbaa !126
  %27 = getelementptr inbounds nuw i8, ptr %23, i64 %26
  store i8 0, ptr %27, align 1, !tbaa !57
  ret void
}

; Function Attrs: inlinehint nounwind uwtable
define internal void @strbuf_addstr(ptr noundef %0, ptr noundef %1) #3 {
  %3 = alloca ptr, align 8
  %4 = alloca ptr, align 8
  store ptr %0, ptr %3, align 8, !tbaa !105
  store ptr %1, ptr %4, align 8, !tbaa !9
  %5 = load ptr, ptr %3, align 8, !tbaa !105
  %6 = load ptr, ptr %4, align 8, !tbaa !9
  %7 = load ptr, ptr %4, align 8, !tbaa !9
  %8 = call i64 @strlen(ptr noundef %7) #13
  call void @strbuf_add(ptr noundef %5, ptr noundef %6, i64 noundef %8)
  ret void
}

; Function Attrs: nounwind uwtable
define internal i32 @write_one_shallow(ptr noundef %0, ptr noundef %1) #0 {
  %3 = alloca i32, align 4
  %4 = alloca ptr, align 8
  %5 = alloca ptr, align 8
  %6 = alloca ptr, align 8
  %7 = alloca ptr, align 8
  %8 = alloca i32, align 4
  %9 = alloca ptr, align 8
  store ptr %0, ptr %4, align 8, !tbaa !42
  store ptr %1, ptr %5, align 8, !tbaa !55
  call void @llvm.lifetime.start.p0(i64 8, ptr %6) #12
  %10 = load ptr, ptr %5, align 8, !tbaa !55
  store ptr %10, ptr %6, align 8, !tbaa !190
  call void @llvm.lifetime.start.p0(i64 8, ptr %7) #12
  %11 = load ptr, ptr %4, align 8, !tbaa !42
  %12 = getelementptr inbounds nuw %struct.commit_graft, ptr %11, i32 0, i32 0
  %13 = call ptr @oid_to_hex(ptr noundef %12)
  store ptr %13, ptr %7, align 8, !tbaa !9
  %14 = load ptr, ptr %4, align 8, !tbaa !42
  %15 = getelementptr inbounds nuw %struct.commit_graft, ptr %14, i32 0, i32 1
  %16 = load i32, ptr %15, align 4, !tbaa !11
  %17 = icmp ne i32 %16, -1
  br i1 %17, label %18, label %19

18:                                               ; preds = %2
  store i32 0, ptr %3, align 4
  store i32 1, ptr %8, align 4
  br label %94

19:                                               ; preds = %2
  %20 = load ptr, ptr %6, align 8, !tbaa !190
  %21 = getelementptr inbounds nuw %struct.write_shallow_data, ptr %20, i32 0, i32 3
  %22 = load i32, ptr %21, align 8, !tbaa !113
  %23 = and i32 %22, 4
  %24 = icmp ne i32 %23, 0
  br i1 %24, label %25, label %33

25:                                               ; preds = %19
  %26 = load ptr, ptr @the_repository, align 8, !tbaa !4
  %27 = load ptr, ptr %4, align 8, !tbaa !42
  %28 = getelementptr inbounds nuw %struct.commit_graft, ptr %27, i32 0, i32 0
  %29 = call i32 @repo_has_object_file(ptr noundef %26, ptr noundef %28)
  %30 = icmp ne i32 %29, 0
  br i1 %30, label %32, label %31

31:                                               ; preds = %25
  store i32 0, ptr %3, align 4
  store i32 1, ptr %8, align 4
  br label %94

32:                                               ; preds = %25
  br label %71

33:                                               ; preds = %19
  %34 = load ptr, ptr %6, align 8, !tbaa !190
  %35 = getelementptr inbounds nuw %struct.write_shallow_data, ptr %34, i32 0, i32 3
  %36 = load i32, ptr %35, align 8, !tbaa !113
  %37 = and i32 %36, 1
  %38 = icmp ne i32 %37, 0
  br i1 %38, label %39, label %70

39:                                               ; preds = %33
  call void @llvm.lifetime.start.p0(i64 8, ptr %9) #12
  %40 = load ptr, ptr @the_repository, align 8, !tbaa !4
  %41 = load ptr, ptr %4, align 8, !tbaa !42
  %42 = getelementptr inbounds nuw %struct.commit_graft, ptr %41, i32 0, i32 0
  %43 = call ptr @lookup_commit(ptr noundef %40, ptr noundef %42)
  store ptr %43, ptr %9, align 8, !tbaa !44
  %44 = load ptr, ptr %9, align 8, !tbaa !44
  %45 = icmp ne ptr %44, null
  br i1 %45, label %46, label %53

46:                                               ; preds = %39
  %47 = load ptr, ptr %9, align 8, !tbaa !44
  %48 = getelementptr inbounds nuw %struct.commit, ptr %47, i32 0, i32 0
  %49 = load i32, ptr %48, align 8
  %50 = lshr i32 %49, 4
  %51 = and i32 %50, 1
  %52 = icmp ne i32 %51, 0
  br i1 %52, label %66, label %53

53:                                               ; preds = %46, %39
  %54 = load ptr, ptr %6, align 8, !tbaa !190
  %55 = getelementptr inbounds nuw %struct.write_shallow_data, ptr %54, i32 0, i32 3
  %56 = load i32, ptr %55, align 8, !tbaa !113
  %57 = and i32 %56, 2
  %58 = icmp ne i32 %57, 0
  br i1 %58, label %59, label %65

59:                                               ; preds = %53
  %60 = load ptr, ptr %9, align 8, !tbaa !44
  %61 = getelementptr inbounds nuw %struct.commit, ptr %60, i32 0, i32 0
  %62 = getelementptr inbounds nuw %struct.object, ptr %61, i32 0, i32 1
  %63 = call ptr @oid_to_hex(ptr noundef %62)
  %64 = call i32 (ptr, ...) @printf(ptr noundef @.str.14, ptr noundef %63)
  br label %65

65:                                               ; preds = %59, %53
  store i32 0, ptr %3, align 4
  store i32 1, ptr %8, align 4
  br label %67

66:                                               ; preds = %46
  store i32 0, ptr %8, align 4
  br label %67

67:                                               ; preds = %66, %65
  call void @llvm.lifetime.end.p0(i64 8, ptr %9) #12
  %68 = load i32, ptr %8, align 4
  switch i32 %68, label %94 [
    i32 0, label %69
  ]

69:                                               ; preds = %67
  br label %70

70:                                               ; preds = %69, %33
  br label %71

71:                                               ; preds = %70, %32
  %72 = load ptr, ptr %6, align 8, !tbaa !190
  %73 = getelementptr inbounds nuw %struct.write_shallow_data, ptr %72, i32 0, i32 2
  %74 = load i32, ptr %73, align 4, !tbaa !112
  %75 = add nsw i32 %74, 1
  store i32 %75, ptr %73, align 4, !tbaa !112
  %76 = load ptr, ptr %6, align 8, !tbaa !190
  %77 = getelementptr inbounds nuw %struct.write_shallow_data, ptr %76, i32 0, i32 1
  %78 = load i32, ptr %77, align 8, !tbaa !111
  %79 = icmp ne i32 %78, 0
  br i1 %79, label %80, label %85

80:                                               ; preds = %71
  %81 = load ptr, ptr %6, align 8, !tbaa !190
  %82 = getelementptr inbounds nuw %struct.write_shallow_data, ptr %81, i32 0, i32 0
  %83 = load ptr, ptr %82, align 8, !tbaa !109
  %84 = load ptr, ptr %7, align 8, !tbaa !9
  call void (ptr, ptr, ...) @packet_buf_write(ptr noundef %83, ptr noundef @.str.15, ptr noundef %84)
  br label %93

85:                                               ; preds = %71
  %86 = load ptr, ptr %6, align 8, !tbaa !190
  %87 = getelementptr inbounds nuw %struct.write_shallow_data, ptr %86, i32 0, i32 0
  %88 = load ptr, ptr %87, align 8, !tbaa !109
  %89 = load ptr, ptr %7, align 8, !tbaa !9
  call void @strbuf_addstr(ptr noundef %88, ptr noundef %89)
  %90 = load ptr, ptr %6, align 8, !tbaa !190
  %91 = getelementptr inbounds nuw %struct.write_shallow_data, ptr %90, i32 0, i32 0
  %92 = load ptr, ptr %91, align 8, !tbaa !109
  call void @strbuf_addch(ptr noundef %92, i32 noundef 10)
  br label %93

93:                                               ; preds = %85, %80
  store i32 0, ptr %3, align 4
  store i32 1, ptr %8, align 4
  br label %94

94:                                               ; preds = %93, %67, %31, %18
  call void @llvm.lifetime.end.p0(i64 8, ptr %7) #12
  call void @llvm.lifetime.end.p0(i64 8, ptr %6) #12
  %95 = load i32, ptr %3, align 4
  ret i32 %95
}