; Function Attrs: nounwind uwtable
define internal noundef i32 @write_one_shallow(ptr noundef %0, ptr noundef captures(none) %1) #0 {
  %3 = tail call ptr @oid_to_hex(ptr noundef %0) #15
  %4 = getelementptr inbounds nuw i8, ptr %0, i64 36
  %5 = load i32, ptr %4, align 4, !tbaa !39
  %.not = icmp eq i32 %5, -1
  br i1 %.not, label %6, label %.critedge

6:                                                ; preds = %2
  %7 = getelementptr inbounds nuw i8, ptr %1, i64 16
  %8 = load i32, ptr %7, align 8, !tbaa !85
  %9 = and i32 %8, 4
  %.not20 = icmp eq i32 %9, 0
  br i1 %.not20, label %13, label %10

10:                                               ; preds = %6
  %11 = load ptr, ptr @the_repository, align 8, !tbaa !45
  %12 = tail call i32 @repo_has_object_file(ptr noundef %11, ptr noundef nonnull %0) #15
  %.not25 = icmp eq i32 %12, 0
  br i1 %.not25, label %.critedge, label %28

13:                                               ; preds = %6
  %14 = and i32 %8, 1
  %.not21 = icmp eq i32 %14, 0
  br i1 %.not21, label %28, label %15

15:                                               ; preds = %13
  %16 = load ptr, ptr @the_repository, align 8, !tbaa !45
  %17 = tail call ptr @lookup_commit(ptr noundef %16, ptr noundef nonnull %0) #15
  %.not22 = icmp eq ptr %17, null
  br i1 %.not22, label %21, label %18

18:                                               ; preds = %15
  %19 = load i32, ptr %17, align 8
  %20 = and i32 %19, 16
  %.not23 = icmp eq i32 %20, 0
  br i1 %.not23, label %21, label %28

21:                                               ; preds = %18, %15
  %22 = load i32, ptr %7, align 8, !tbaa !85
  %23 = and i32 %22, 2
  %.not24 = icmp eq i32 %23, 0
  br i1 %.not24, label %.critedge, label %24

24:                                               ; preds = %21
  %25 = getelementptr inbounds nuw i8, ptr %17, i64 4
  %26 = tail call ptr @oid_to_hex(ptr noundef nonnull %25) #15
  %27 = tail call i32 (ptr, ...) @printf(ptr noundef nonnull dereferenceable(1) @.str.14, ptr noundef %26)
  br label %.critedge

28:                                               ; preds = %18, %13, %10
  %29 = getelementptr inbounds nuw i8, ptr %1, i64 12
  %30 = load i32, ptr %29, align 4, !tbaa !84
  %31 = add nsw i32 %30, 1
  store i32 %31, ptr %29, align 4, !tbaa !84
  %32 = getelementptr inbounds nuw i8, ptr %1, i64 8
  %33 = load i32, ptr %32, align 8, !tbaa !83
  %.not26 = icmp eq i32 %33, 0
  %34 = load ptr, ptr %1, align 8, !tbaa !80
  br i1 %.not26, label %36, label %35

35:                                               ; preds = %28
  tail call void (ptr, ptr, ...) @packet_buf_write(ptr noundef %34, ptr noundef nonnull @.str.15, ptr noundef %3) #15
  br label %.critedge

36:                                               ; preds = %28
  %37 = tail call i64 @strlen(ptr noundef nonnull dereferenceable(1) %3) #16
  tail call void @strbuf_add(ptr noundef %34, ptr noundef nonnull %3, i64 noundef %37) #15
  %38 = load ptr, ptr %1, align 8, !tbaa !80
  %39 = load i64, ptr %38, align 8, !tbaa !90
  %.not.i.i = icmp eq i64 %39, 0
  br i1 %.not.i.i, label %strbuf_avail.exit.thread.i, label %strbuf_avail.exit.i

strbuf_avail.exit.i:                              ; preds = %36
  %40 = getelementptr inbounds nuw i8, ptr %38, i64 8
  %41 = load i64, ptr %40, align 8, !tbaa !92
  %.neg.i = add i64 %41, 1
  %.not.i = icmp eq i64 %39, %.neg.i
  br i1 %.not.i, label %strbuf_avail.exit.thread.i, label %strbuf_addch.exit

strbuf_avail.exit.thread.i:                       ; preds = %strbuf_avail.exit.i, %36
  tail call void @strbuf_grow(ptr noundef nonnull %38, i64 noundef 1) #15
  %.phi.trans.insert.i = getelementptr inbounds nuw i8, ptr %38, i64 8
  %.pre.i = load i64, ptr %.phi.trans.insert.i, align 8, !tbaa !92
  %.pre7.i = add i64 %.pre.i, 1
  br label %strbuf_addch.exit

strbuf_addch.exit:                                ; preds = %strbuf_avail.exit.i, %strbuf_avail.exit.thread.i
  %.pre-phi.i = phi i64 [ %.pre7.i, %strbuf_avail.exit.thread.i ], [ %.neg.i, %strbuf_avail.exit.i ]
  %42 = phi i64 [ %.pre.i, %strbuf_avail.exit.thread.i ], [ %41, %strbuf_avail.exit.i ]
  %43 = getelementptr inbounds nuw i8, ptr %38, i64 16
  %44 = load ptr, ptr %43, align 8, !tbaa !93
  %45 = getelementptr inbounds nuw i8, ptr %38, i64 8
  store i64 %.pre-phi.i, ptr %45, align 8, !tbaa !92
  %46 = getelementptr inbounds nuw i8, ptr %44, i64 %42
  store i8 10, ptr %46, align 1, !tbaa !50
  %47 = load ptr, ptr %43, align 8, !tbaa !93
  %48 = load i64, ptr %45, align 8, !tbaa !92
  %49 = getelementptr inbounds nuw i8, ptr %47, i64 %48
  store i8 0, ptr %49, align 1, !tbaa !50
  br label %.critedge

.critedge:                                        ; preds = %24, %21, %35, %strbuf_addch.exit, %10, %2
  ret i32 0
}